	.file	"asm.c"
	.text
.Ltext0:
	.cfi_sections	.debug_frame
	.section .rdata,"dr"
.LC0:
	.ascii "Beginning syscall.\0"
.LC1:
	.ascii "Syscall ended. Result is %i\12\0"
	.text
	.globl	runAsm
	.def	runAsm;	.scl	2;	.type	32;	.endef
	.seh_proc	runAsm
runAsm:
.LFB13:
	.file 1 "asm/asm.c"
	.loc 1 4 0
	.cfi_startproc
	pushq	%rbp
	.seh_pushreg	%rbp
	.cfi_def_cfa_offset 16
	.cfi_offset 6, -16
	movq	%rsp, %rbp
	.seh_setframe	%rbp, 0
	.cfi_def_cfa_register 6
	subq	$48, %rsp
	.seh_stackalloc	48
	.seh_endprologue
	.loc 1 19 0
	leaq	.LC0(%rip), %rcx
	call	puts
	.loc 1 20 0
	movl	$-14235, -4(%rbp)
	.loc 1 21 0
/APP
 # 21 "asm/asm.c" 1
	mov $3,%rax;mov $0,%rdi;syscall
 # 0 "" 2
/NO_APP
	movl	%eax, -4(%rbp)
	.loc 1 27 0
	movl	-4(%rbp), %eax
	movl	%eax, %edx
	leaq	.LC1(%rip), %rcx
	call	printf
	nop
	.loc 1 29 0
	addq	$48, %rsp
	popq	%rbp
	.cfi_restore 6
	.cfi_def_cfa 7, 8
	ret
	.cfi_endproc
.LFE13:
	.seh_endproc
.Letext0: