	.file	"create_process.c"
	.text
.Ltext0:
	.section	.rodata
.LC0:
	.string	"Command Processor available!"
	.align 8
.LC1:
	.string	"Create process with system(...)"
	.align 8
.LC2:
	.string	"Process creation successful. Return code: %i\n"
	.align 8
.LC3:
	.string	"Process creation failed. Return code: %i\n"
.LC4:
	.string	"The current PID is %ld\n"
.LC5:
	.string	"The parent PID is %ld\n"
	.align 8
.LC6:
	.string	"No Command Processor available!"
	.text
	.globl	runCreateProcess
	.type	runCreateProcess, @function
runCreateProcess:
.LFB2:
	.file 1 "processes/create_process.c"
	.loc 1 18 0
	.cfi_startproc
	pushq	%rbp
	.cfi_def_cfa_offset 16
	.cfi_offset 6, -16
	movq	%rsp, %rbp
	.cfi_def_cfa_register 6
	subq	$16, %rsp
	.loc 1 21 0
	movl	$0, %edi
	call	system
	movl	%eax, -16(%rbp)
	.loc 1 22 0
	cmpl	$0, -16(%rbp)
	jle	.L2
.LBB2:
	.loc 1 23 0
	movl	$.LC0, %edi
	call	puts
	.loc 1 26 0
	movl	$.LC1, %edi
	call	puts
	.loc 1 27 0
	movl	$0, %eax
	call	createProcess
	movl	%eax, -12(%rbp)
	.loc 1 28 0
	cmpl	$0, -12(%rbp)
	jne	.L3
	.loc 1 29 0
	movl	-12(%rbp), %eax
	movl	%eax, %esi
	movl	$.LC2, %edi
	movl	$0, %eax
	call	printf
	jmp	.L4
.L3:
	.loc 1 31 0
	movl	-12(%rbp), %eax
	movl	%eax, %esi
	movl	$.LC3, %edi
	movl	$0, %eax
	call	printf
.L4:
	.loc 1 35 0 discriminator 1
	movl	$0, %eax
	call	getPid
	movl	%eax, -8(%rbp)
	.loc 1 36 0 discriminator 1
	movl	-8(%rbp), %eax
	movl	%eax, %esi
	movl	$.LC4, %edi
	movl	$0, %eax
	call	printf
	.loc 1 38 0 discriminator 1
	movl	$0, %eax
	call	getParentPid
	movl	%eax, -4(%rbp)
	.loc 1 39 0 discriminator 1
	movl	-4(%rbp), %eax
	movl	%eax, %esi
	movl	$.LC5, %edi
	movl	$0, %eax
	call	printf
.LBE2:
	jmp	.L1
.L2:
	.loc 1 43 0
	movl	$.LC6, %edi
	call	puts
.L1:
	.loc 1 45 0
	leave
	.cfi_def_cfa 7, 8
	ret
	.cfi_endproc
.LFE2:
	.size	runCreateProcess, .-runCreateProcess
	.section	.rodata
.LC7:
	.string	"ls"
	.text
	.globl	createProcess
	.type	createProcess, @function
createProcess:
.LFB3:
	.loc 1 50 0
	.cfi_startproc
	pushq	%rbp
	.cfi_def_cfa_offset 16
	.cfi_offset 6, -16
	movq	%rsp, %rbp
	.cfi_def_cfa_register 6
	.loc 1 52 0
	movl	$.LC7, %edi
	call	system
	.loc 1 57 0
	popq	%rbp
	.cfi_def_cfa 7, 8
	ret
	.cfi_endproc
.LFE3:
	.size	createProcess, .-createProcess
	.globl	getPid
	.type	getPid, @function
getPid:
.LFB4:
	.loc 1 63 0
	.cfi_startproc
	pushq	%rbp
	.cfi_def_cfa_offset 16
	.cfi_offset 6, -16
	movq	%rsp, %rbp
	.cfi_def_cfa_register 6
	.loc 1 64 0
	call	getpid
	.loc 1 65 0
	popq	%rbp
	.cfi_def_cfa 7, 8
	ret
	.cfi_endproc
.LFE4:
	.size	getPid, .-getPid
	.globl	getParentPid
	.type	getParentPid, @function
getParentPid:
.LFB5:
	.loc 1 73 0
	.cfi_startproc
	pushq	%rbp
	.cfi_def_cfa_offset 16
	.cfi_offset 6, -16
	movq	%rsp, %rbp
	.cfi_def_cfa_register 6
	.loc 1 74 0
	call	getppid
	.loc 1 75 0
	popq	%rbp
	.cfi_def_cfa 7, 8
	ret
	.cfi_endproc
.LFE5:
	.size	getParentPid, .-getParentPid
.Letext0:
	.file 2 "/usr/include/x86_64-linux-gnu/bits/types.h"
	.file 3 "/usr/include/x86_64-linux-gnu/sys/types.h"
	.section	.note.GNU-stack,"",@progbits
