   1              		.file	"main.c"
   2              		.text
   3              	.Ltext0:
   4              		.cfi_sections	.debug_frame
   5              		.def	__main;	.scl	2;	.type	32;	.endef
   6              		.globl	main
   7              		.def	main;	.scl	2;	.type	32;	.endef
   8              		.seh_proc	main
   9              	main:
  10              	.LFB16:
  11              		.file 1 "main.c"
  12              		.loc 1 15 0
  13              		.cfi_startproc
  14 0000 55       		pushq	%rbp
  15              		.seh_pushreg	%rbp
  16              		.cfi_def_cfa_offset 16
  17              		.cfi_offset 6, -16
  18 0001 4889E5   		movq	%rsp, %rbp
  19              		.seh_setframe	%rbp, 0
  20              		.cfi_def_cfa_register 6
  21 0004 4883EC20 		subq	$32, %rsp
  22              		.seh_stackalloc	32
  23              		.seh_endprologue
  24 0008 894D10   		movl	%ecx, 16(%rbp)
  25 000b 48895518 		movq	%rdx, 24(%rbp)
  26              		.loc 1 15 0
  27 000f E8000000 		call	__main
  27      00
  28              		.loc 1 17 0
  29 0014 B8000000 		movl	$0, %eax
  29      00
  30              		.loc 1 18 0
  31 0019 4883C420 		addq	$32, %rsp
  32 001d 5D       		popq	%rbp
  33              		.cfi_restore 6
  34              		.cfi_def_cfa 7, 8
  35 001e C3       		ret
  36              		.cfi_endproc
  37              	.LFE16:
  38              		.seh_endproc
  39              	.Letext0: