GAS LISTING /tmp/ccDgbch3.s 			page 1


   1              		.file	"bar.c"
   2              		.text
   3              	.Ltext0:
   4              		.section	.rodata
   5              	.LC0:
   6 0000 62617200 		.string	"bar"
   7              		.text
   8              		.globl	bar
  10              	bar:
  11              	.LFB0:
  12              		.file 1 "bar.c"
   1:bar.c         **** #include <stdio.h>
   2:bar.c         **** 
   3:bar.c         **** void bar() {
  13              		.loc 1 3 0
  14              		.cfi_startproc
  15 0000 55       		pushq	%rbp
  16              		.cfi_def_cfa_offset 16
  17              		.cfi_offset 6, -16
  18 0001 4889E5   		movq	%rsp, %rbp
  19              		.cfi_def_cfa_register 6
   4:bar.c         **** 	printf("bar\n");
  20              		.loc 1 4 0
  21 0004 BF000000 		movl	$.LC0, %edi
  21      00
  22 0009 E8000000 		call	puts
  22      00
   5:bar.c         **** }
  23              		.loc 1 5 0
  24 000e 5D       		popq	%rbp
  25              		.cfi_def_cfa 7, 8
  26 000f C3       		ret
  27              		.cfi_endproc
  28              	.LFE0:
  30              	.Letext0:
GAS LISTING /tmp/ccDgbch3.s 			page 2


DEFINED SYMBOLS
                            *ABS*:0000000000000000 bar.c
     /tmp/ccDgbch3.s:10     .text:0000000000000000 bar

UNDEFINED SYMBOLS
puts
GAS LISTING /tmp/ccDgbch3.s 			page 1


   1              		.file	"foo.c"
   2              		.text
   3              	.Ltext0:
   4              		.section	.rodata
   5              	.LC0:
   6 0000 666F6F00 		.string	"foo"
   7              		.text
   8              		.globl	foo
  10              	foo:
  11              	.LFB0:
  12              		.file 1 "foo.c"
   1:foo.c         **** #include <stdio.h>
   2:foo.c         **** 
   3:foo.c         **** void foo() {
  13              		.loc 1 3 0
  14              		.cfi_startproc
  15 0000 55       		pushq	%rbp
  16              		.cfi_def_cfa_offset 16
  17              		.cfi_offset 6, -16
  18 0001 4889E5   		movq	%rsp, %rbp
  19              		.cfi_def_cfa_register 6
   4:foo.c         **** 	printf("foo\n");
  20              		.loc 1 4 0
  21 0004 BF000000 		movl	$.LC0, %edi
  21      00
  22 0009 E8000000 		call	puts
  22      00
   5:foo.c         **** }
  23              		.loc 1 5 0
  24 000e 5D       		popq	%rbp
  25              		.cfi_def_cfa 7, 8
  26 000f C3       		ret
  27              		.cfi_endproc
  28              	.LFE0:
  30              	.Letext0:
GAS LISTING /tmp/ccDgbch3.s 			page 2


DEFINED SYMBOLS
                            *ABS*:0000000000000000 foo.c
     /tmp/ccDgbch3.s:10     .text:0000000000000000 foo

UNDEFINED SYMBOLS
puts
GAS LISTING /tmp/ccDgbch3.s 			page 1


   1              		.file	"main.c"
   2              		.text
   3              	.Ltext0:
   4              		.section	.rodata
   5              	.LC0:
   6 0000 48656C6C 		.string	"Hello World!"
   6      6F20576F 
   6      726C6421 
   6      00
   7              		.text
   8              		.globl	main
  10              	main:
  11              	.LFB0:
  12              		.file 1 "main.c"
   1:main.c        **** #include <stdio.h>
   2:main.c        **** #include "foo.h"
   3:main.c        **** #include "bar.h"
   4:main.c        **** #include "os.h"
   5:main.c        **** 
   6:main.c        **** int main() {
  13              		.loc 1 6 0
  14              		.cfi_startproc
  15 0000 55       		pushq	%rbp
  16              		.cfi_def_cfa_offset 16
  17              		.cfi_offset 6, -16
  18 0001 4889E5   		movq	%rsp, %rbp
  19              		.cfi_def_cfa_register 6
   7:main.c        **** 	printf("Hello World!\n");
  20              		.loc 1 7 0
  21 0004 BF000000 		movl	$.LC0, %edi
  21      00
  22 0009 E8000000 		call	puts
  22      00
   8:main.c        **** 	foo();
  23              		.loc 1 8 0
  24 000e B8000000 		movl	$0, %eax
  24      00
  25 0013 E8000000 		call	foo
  25      00
   9:main.c        **** 	bar();
  26              		.loc 1 9 0
  27 0018 B8000000 		movl	$0, %eax
  27      00
  28 001d E8000000 		call	bar
  28      00
  10:main.c        **** 	os();
  29              		.loc 1 10 0
  30 0022 B8000000 		movl	$0, %eax
  30      00
  31 0027 E8000000 		call	os
  31      00
  11:main.c        **** 	return 0;
  32              		.loc 1 11 0
  33 002c B8000000 		movl	$0, %eax
  33      00
  12:main.c        **** }
  34              		.loc 1 12 0
GAS LISTING /tmp/ccDgbch3.s 			page 2


  35 0031 5D       		popq	%rbp
  36              		.cfi_def_cfa 7, 8
  37 0032 C3       		ret
  38              		.cfi_endproc
  39              	.LFE0:
  41              	.Letext0:
GAS LISTING /tmp/ccDgbch3.s 			page 3


DEFINED SYMBOLS
                            *ABS*:0000000000000000 main.c
     /tmp/ccDgbch3.s:10     .text:0000000000000000 main

UNDEFINED SYMBOLS
puts
foo
bar
os
GAS LISTING /tmp/ccDgbch3.s 			page 1


   1              		.file	"linux.c"
   2              		.text
   3              	.Ltext0:
   4              		.section	.rodata
   5              	.LC0:
   6 0000 4865792C 		.string	"Hey, I'm Linux"
   6      2049276D 
   6      204C696E 
   6      757800
   7              		.text
   8              		.globl	os
  10              	os:
  11              	.LFB0:
  12              		.file 1 "linux/linux.c"
   1:linux/linux.c **** #include <stdio.h>
   2:linux/linux.c **** 
   3:linux/linux.c **** void os() {
  13              		.loc 1 3 0
  14              		.cfi_startproc
  15 0000 55       		pushq	%rbp
  16              		.cfi_def_cfa_offset 16
  17              		.cfi_offset 6, -16
  18 0001 4889E5   		movq	%rsp, %rbp
  19              		.cfi_def_cfa_register 6
   4:linux/linux.c **** 	printf("Hey, I'm Linux");
  20              		.loc 1 4 0
  21 0004 BF000000 		movl	$.LC0, %edi
  21      00
  22 0009 B8000000 		movl	$0, %eax
  22      00
  23 000e E8000000 		call	printf
  23      00
   5:linux/linux.c **** }...
  24              		.loc 1 5 0
  25 0013 5D       		popq	%rbp
  26              		.cfi_def_cfa 7, 8
  27 0014 C3       		ret
  28              		.cfi_endproc
  29              	.LFE0:
  31              	.Letext0:
GAS LISTING /tmp/ccDgbch3.s 			page 2


DEFINED SYMBOLS
                            *ABS*:0000000000000000 linux.c
     /tmp/ccDgbch3.s:10     .text:0000000000000000 os

UNDEFINED SYMBOLS
printf
