GAS LISTING C:\Users\UCB\AppData\Local\Temp\ccaX9t6f.s 			page 1


   1              		.file	"bar.c"
   2              		.text
   3              	.Ltext0:
   4              		.cfi_sections	.debug_frame
   5              		.section .rdata,"dr"
   6              	.LC0:
   7 0000 62617200 		.ascii "bar\0"
   8 0004 00000000 		.text
   8      00000000 
   8      00000000 
   9              		.globl	bar
  11              		.seh_proc	bar
  12              	bar:
  13              	.LFB13:
  14              		.file 1 "bar.c"
   1:bar.c         **** #include <stdio.h>
   2:bar.c         **** 
   3:bar.c         **** void bar() {
  15              		.loc 1 3 0
  16              		.cfi_startproc
  17 0000 55       		pushq	%rbp
  18              		.seh_pushreg	%rbp
  19              		.cfi_def_cfa_offset 16
  20              		.cfi_offset 6, -16
  21 0001 4889E5   		movq	%rsp, %rbp
  22              		.seh_setframe	%rbp, 0
  23              		.cfi_def_cfa_register 6
  24 0004 4883EC20 		subq	$32, %rsp
  25              		.seh_stackalloc	32
  26              		.seh_endprologue
   4:bar.c         **** 	printf("bar\n");
  27              		.loc 1 4 0
  28 0008 488D0D00 		leaq	.LC0(%rip), %rcx
  28      000000
  29 000f E8000000 		call	puts
  29      00
  30 0014 90       		nop
   5:bar.c         **** }
  31              		.loc 1 5 0
  32 0015 4883C420 		addq	$32, %rsp
  33 0019 5D       		popq	%rbp
  34              		.cfi_restore 6
  35              		.cfi_def_cfa 7, 8
  36 001a C3       		ret
  37              		.cfi_endproc
  38              	.LFE13:
  39              		.seh_endproc
  40              	.Letext0:
   2              		.text
   3              	.Ltext0:
   4              		.cfi_sections	.debug_frame
   5              	.Letext0:
   2              		.text
   3              	.Ltext0:
   4              		.cfi_sections	.debug_frame
   5              		.section .rdata,"dr"
   6              	.LC0:
   7 0000 666F6F00 		.ascii "foo\0"
   8 0004 00000000 		.text
   8      00000000 
   8      00000000 
   9              		.globl	foo
  11              		.seh_proc	foo
  12              	foo:
  13              	.LFB13:
  14              		.file 1 "foo.c"
   1:foo.c         **** #include <stdio.h>
   2:foo.c         **** 
   3:foo.c         **** void foo() {
  15              		.loc 1 3 0
  16              		.cfi_startproc
  17 0000 55       		pushq	%rbp
  18              		.seh_pushreg	%rbp
  19              		.cfi_def_cfa_offset 16
  20              		.cfi_offset 6, -16
  21 0001 4889E5   		movq	%rsp, %rbp
  22              		.seh_setframe	%rbp, 0
  23              		.cfi_def_cfa_register 6
  24 0004 4883EC20 		subq	$32, %rsp
  25              		.seh_stackalloc	32
  26              		.seh_endprologue
   4:foo.c         **** 	printf("foo\n");
  27              		.loc 1 4 0
  28 0008 488D0D00 		leaq	.LC0(%rip), %rcx
  28      000000
  29 000f E8000000 		call	puts
  29      00
  30 0014 90       		nop
   5:foo.c         **** }
  31              		.loc 1 5 0
  32 0015 4883C420 		addq	$32, %rsp
  33 0019 5D       		popq	%rbp
  34              		.cfi_restore 6
  35              		.cfi_def_cfa 7, 8
  36 001a C3       		ret
  37              		.cfi_endproc
  38              	.LFE13:
  39              		.seh_endproc
  40              	.Letext0:
   2              		.text
   3              	.Ltext0:
   4              		.cfi_sections	.debug_frame
   5              		.section .rdata,"dr"
   6              	.LC0:
   7 0000 4865792C 		.ascii "Hey, I'm Windows!\0"
   7      2049276D 
   7      2057696E 
   7      646F7773 
   7      2100
   8              		.text
   9              		.globl	os
  11              		.seh_proc	os
  12              	os:
  13              	.LFB1948:
  14              		.file 1 "win/win.c"
   1:win/win.c     **** #include <windows.h>
   2:win/win.c     **** #include <stdio.h>
   3:win/win.c     **** 
   4:win/win.c     **** void os() {
  15              		.loc 1 4 0
  16              		.cfi_startproc
  17 0000 55       		pushq	%rbp
  18              		.seh_pushreg	%rbp
  19              		.cfi_def_cfa_offset 16
  20              		.cfi_offset 6, -16
  21 0001 4889E5   		movq	%rsp, %rbp
  22              		.seh_setframe	%rbp, 0
  23              		.cfi_def_cfa_register 6
  24 0004 4883EC20 		subq	$32, %rsp
  25              		.seh_stackalloc	32
  26              		.seh_endprologue
   5:win/win.c     **** 	printf("Hey, I'm Windows!\n");
  27              		.loc 1 5 0
  28 0008 488D0D00 		leaq	.LC0(%rip), %rcx
  28      000000
  29 000f E8000000 		call	puts
  29      00
  30 0014 90       		nop
   6:win/win.c     **** } 
  31              		.loc 1 6 0
  32 0015 4883C420 		addq	$32, %rsp
  33 0019 5D       		popq	%rbp
  34              		.cfi_restore 6
  35              		.cfi_def_cfa 7, 8
  36 001a C3       		ret
  37              		.cfi_endproc
  38              	.LFE1948:
  39              		.seh_endproc
  40              		.globl	lpszAppName
  41              		.section .rdata,"dr"
  42              	.LC1:
  43 0012 4170704E 		.ascii "AppName\0"
  43      616D6500 
  44              		.data
  45              		.align 8
GAS LISTING C:\Users\UCB\AppData\Local\Temp\ccaX9t6f.s 			page 2


  46              	lpszAppName:
  47 0000 12000000 		.quad	.LC1
  47      00000000 
  48              		.globl	lpszTitle
  49              		.section .rdata,"dr"
  50              	.LC2:
  51 001a 4D65696E 		.ascii "Meine erste Applikation\0"
  51      65206572 
  51      73746520 
  51      4170706C 
  51      696B6174 
  52              		.data
  53              		.align 8
  54              	lpszTitle:
  55 0008 1A000000 		.quad	.LC2
  55      00000000 
  56              		.section .rdata,"dr"
  57              	.LC3:
  58 0032 46696E69 		.ascii "Finished\0"
  58      73686564 
  58      00
  59              		.text
  60              		.globl	WinMain
  62              		.seh_proc	WinMain
  63              	WinMain:
  64              	.LFB1949:
   7:win/win.c     **** 
   8:win/win.c     **** LRESULT CALLBACK WndProc(HWND, UINT, WPARAM, LPARAM);
   9:win/win.c     **** 
  10:win/win.c     **** LPCSTR lpszAppName = "AppName";
  11:win/win.c     **** LPCSTR lpszTitle   = "Meine erste Applikation";
  12:win/win.c     **** 
  13:win/win.c     **** int APIENTRY WinMain(HINSTANCE hInstance,
  14:win/win.c     ****            HINSTANCE hPrevInstance, PSTR szCmdLine, int iCmdShow)
  15:win/win.c     **** {
  65              		.loc 1 15 0
  66              		.cfi_startproc
  67 001b 55       		pushq	%rbp
  68              		.seh_pushreg	%rbp
  69              		.cfi_def_cfa_offset 16
  70              		.cfi_offset 6, -16
  71 001c 4881EC00 		subq	$256, %rsp
  71      010000
  72              		.seh_stackalloc	256
  73              		.cfi_def_cfa_offset 272
  74 0023 488DAC24 		leaq	128(%rsp), %rbp
  74      80000000 
  75              		.seh_setframe	%rbp, 128
  76              		.cfi_def_cfa 6, 144
  77              		.seh_endprologue
  78 002b 48898D90 		movq	%rcx, 144(%rbp)
  78      000000
  79 0032 48899598 		movq	%rdx, 152(%rbp)
  79      000000
  80 0039 4C8985A0 		movq	%r8, 160(%rbp)
  80      000000
  81 0040 44898DA8 		movl	%r9d, 168(%rbp)
GAS LISTING C:\Users\UCB\AppData\Local\Temp\ccaX9t6f.s 			page 3


  81      000000
  16:win/win.c     **** 	
  17:win/win.c     **** 	int i = 0;
  82              		.loc 1 17 0
  83 0047 C7457C00 		movl	$0, 124(%rbp)
  83      000000
  18:win/win.c     **** 	int j = 1;
  84              		.loc 1 18 0
  85 004e C7457801 		movl	$1, 120(%rbp)
  85      000000
  19:win/win.c     **** 	int result = i + j;
  86              		.loc 1 19 0
  87 0055 8B557C   		movl	124(%rbp), %edx
  88 0058 8B4578   		movl	120(%rbp), %eax
  89 005b 01D0     		addl	%edx, %eax
  90 005d 894574   		movl	%eax, 116(%rbp)
  20:win/win.c     **** 	printf("Finished");
  91              		.loc 1 20 0
  92 0060 488D0D32 		leaq	.LC3(%rip), %rcx
  92      000000
  93 0067 E8000000 		call	printf
  93      00
  21:win/win.c     **** 
  22:win/win.c     ****    HWND       hWnd;
  23:win/win.c     ****    MSG        msg;
  24:win/win.c     ****    WNDCLASSEX   wc;
  25:win/win.c     **** 
  26:win/win.c     ****    wc.cbSize        =  sizeof(WNDCLASSEX);
  94              		.loc 1 26 0
  95 006c C745E050 		movl	$80, -32(%rbp)
  95      000000
  27:win/win.c     ****    wc.style         =  CS_HREDRAW | CS_VREDRAW | CS_NOCLOSE;
  96              		.loc 1 27 0
  97 0073 C745E403 		movl	$515, -28(%rbp)
  97      020000
  28:win/win.c     ****    wc.lpfnWndProc   =  WndProc;
  98              		.loc 1 28 0
  99 007a 488D05A4 		leaq	WndProc(%rip), %rax
  99      010000
 100 0081 488945E8 		movq	%rax, -24(%rbp)
  29:win/win.c     ****    wc.cbClsExtra    =  0;
 101              		.loc 1 29 0
 102 0085 C745F000 		movl	$0, -16(%rbp)
 102      000000
  30:win/win.c     ****    wc.cbWndExtra    =  0;
 103              		.loc 1 30 0
 104 008c C745F400 		movl	$0, -12(%rbp)
 104      000000
  31:win/win.c     ****    wc.hInstance     =  hInstance;
 105              		.loc 1 31 0
 106 0093 488B8590 		movq	144(%rbp), %rax
 106      000000
 107 009a 488945F8 		movq	%rax, -8(%rbp)
  32:win/win.c     ****    wc.hCursor       =  LoadCursor(NULL,IDC_ARROW);
 108              		.loc 1 32 0
 109 009e BA007F00 		movl	$32512, %edx
 109      00
GAS LISTING C:\Users\UCB\AppData\Local\Temp\ccaX9t6f.s 			page 4


 110 00a3 B9000000 		movl	$0, %ecx
 110      00
 111 00a8 488B0500 		movq	__imp_LoadCursorA(%rip), %rax
 111      000000
 112 00af FFD0     		call	*%rax
 113 00b1 48894508 		movq	%rax, 8(%rbp)
  33:win/win.c     ****    wc.hIcon         =  LoadIcon(NULL, IDI_APPLICATION);
 114              		.loc 1 33 0
 115 00b5 BA007F00 		movl	$32512, %edx
 115      00
 116 00ba B9000000 		movl	$0, %ecx
 116      00
 117 00bf 488B0500 		movq	__imp_LoadIconA(%rip), %rax
 117      000000
 118 00c6 FFD0     		call	*%rax
 119 00c8 48894500 		movq	%rax, 0(%rbp)
  34:win/win.c     ****    wc.hbrBackground =  (HBRUSH)GetStockObject(WHITE_BRUSH);
 120              		.loc 1 34 0
 121 00cc B9000000 		movl	$0, %ecx
 121      00
 122 00d1 488B0500 		movq	__imp_GetStockObject(%rip), %rax
 122      000000
 123 00d8 FFD0     		call	*%rax
 124 00da 48894510 		movq	%rax, 16(%rbp)
  35:win/win.c     ****    wc.lpszClassName =  lpszAppName;
 125              		.loc 1 35 0
 126 00de 488B0500 		movq	lpszAppName(%rip), %rax
 126      000000
 127 00e5 48894520 		movq	%rax, 32(%rbp)
  36:win/win.c     ****    wc.lpszMenuName  =  lpszAppName;
 128              		.loc 1 36 0
 129 00e9 488B0500 		movq	lpszAppName(%rip), %rax
 129      000000
 130 00f0 48894518 		movq	%rax, 24(%rbp)
  37:win/win.c     ****    wc.hIconSm       =  LoadIcon(NULL, IDI_APPLICATION);
 131              		.loc 1 37 0
 132 00f4 BA007F00 		movl	$32512, %edx
 132      00
 133 00f9 B9000000 		movl	$0, %ecx
 133      00
 134 00fe 488B0500 		movq	__imp_LoadIconA(%rip), %rax
 134      000000
 135 0105 FFD0     		call	*%rax
 136 0107 48894528 		movq	%rax, 40(%rbp)
  38:win/win.c     **** 
  39:win/win.c     ****    if( RegisterClassEx(&wc) == 0)
 137              		.loc 1 39 0
 138 010b 488D45E0 		leaq	-32(%rbp), %rax
 139 010f 4889C1   		movq	%rax, %rcx
 140 0112 488B0500 		movq	__imp_RegisterClassExA(%rip), %rax
 140      000000
 141 0119 FFD0     		call	*%rax
 142 011b 6685C0   		testw	%ax, %ax
 143 011e 750A     		jne	.L3
  40:win/win.c     ****       return 0;
 144              		.loc 1 40 0
 145 0120 B8000000 		movl	$0, %eax
GAS LISTING C:\Users\UCB\AppData\Local\Temp\ccaX9t6f.s 			page 5


 145      00
 146 0125 E9F20000 		jmp	.L8
 146      00
 147              	.L3:
  41:win/win.c     **** 
  42:win/win.c     ****    hWnd = CreateWindowEx(NULL,
 148              		.loc 1 42 0
 149 012a 488B0D08 		movq	lpszTitle(%rip), %rcx
 149      000000
 150 0131 488B0500 		movq	lpszAppName(%rip), %rax
 150      000000
 151 0138 48C74424 		movq	$0, 88(%rsp)
 151      58000000 
 151      00
 152 0141 488B9590 		movq	144(%rbp), %rdx
 152      000000
 153 0148 48895424 		movq	%rdx, 80(%rsp)
 153      50
 154 014d 48C74424 		movq	$0, 72(%rsp)
 154      48000000 
 154      00
 155 0156 48C74424 		movq	$0, 64(%rsp)
 155      40000000 
 155      00
 156 015f C7442438 		movl	$-2147483648, 56(%rsp)
 156      00000080 
 157 0167 C7442430 		movl	$-2147483648, 48(%rsp)
 157      00000080 
 158 016f C7442428 		movl	$0, 40(%rsp)
 158      00000000 
 159 0177 C7442420 		movl	$0, 32(%rsp)
 159      00000000 
 160 017f 41B90000 		movl	$13565952, %r9d
 160      CF00
 161 0185 4989C8   		movq	%rcx, %r8
 162 0188 4889C2   		movq	%rax, %rdx
 163 018b B9000000 		movl	$0, %ecx
 163      00
 164 0190 488B0500 		movq	__imp_CreateWindowExA(%rip), %rax
 164      000000
 165 0197 FFD0     		call	*%rax
 166 0199 48894568 		movq	%rax, 104(%rbp)
  43:win/win.c     ****                          lpszAppName,
  44:win/win.c     ****                          lpszTitle,
  45:win/win.c     ****                          WS_OVERLAPPEDWINDOW,
  46:win/win.c     ****                          0,
  47:win/win.c     ****                          0,
  48:win/win.c     ****                          CW_USEDEFAULT,
  49:win/win.c     ****                          CW_USEDEFAULT,
  50:win/win.c     ****                          NULL,
  51:win/win.c     ****                          NULL,
  52:win/win.c     ****                          hInstance,
  53:win/win.c     ****                          NULL);
  54:win/win.c     **** 
  55:win/win.c     ****    if( hWnd == NULL)
 167              		.loc 1 55 0
 168 019d 48837D68 		cmpq	$0, 104(%rbp)
GAS LISTING C:\Users\UCB\AppData\Local\Temp\ccaX9t6f.s 			page 6


 168      00
 169 01a2 7507     		jne	.L5
  56:win/win.c     ****       return 0;
 170              		.loc 1 56 0
 171 01a4 B8000000 		movl	$0, %eax
 171      00
 172 01a9 EB71     		jmp	.L8
 173              	.L5:
  57:win/win.c     **** 
  58:win/win.c     ****    ShowWindow(hWnd, iCmdShow);
 174              		.loc 1 58 0
 175 01ab 8B95A800 		movl	168(%rbp), %edx
 175      0000
 176 01b1 488B4568 		movq	104(%rbp), %rax
 177 01b5 4889C1   		movq	%rax, %rcx
 178 01b8 488B0500 		movq	__imp_ShowWindow(%rip), %rax
 178      000000
 179 01bf FFD0     		call	*%rax
  59:win/win.c     ****    UpdateWindow(hWnd);
 180              		.loc 1 59 0
 181 01c1 488B4568 		movq	104(%rbp), %rax
 182 01c5 4889C1   		movq	%rax, %rcx
 183 01c8 488B0500 		movq	__imp_UpdateWindow(%rip), %rax
 183      000000
 184 01cf FFD0     		call	*%rax
  60:win/win.c     **** 
  61:win/win.c     ****    while (GetMessage(&msg, NULL, 0, 0) > 0)
 185              		.loc 1 61 0
 186 01d1 EB20     		jmp	.L6
 187              	.L7:
  62:win/win.c     ****    {
  63:win/win.c     ****       TranslateMessage(&msg);
 188              		.loc 1 63 0
 189 01d3 488D4530 		leaq	48(%rbp), %rax
 190 01d7 4889C1   		movq	%rax, %rcx
 191 01da 488B0500 		movq	__imp_TranslateMessage(%rip), %rax
 191      000000
 192 01e1 FFD0     		call	*%rax
  64:win/win.c     ****       DispatchMessage(&msg);
 193              		.loc 1 64 0
 194 01e3 488D4530 		leaq	48(%rbp), %rax
 195 01e7 4889C1   		movq	%rax, %rcx
 196 01ea 488B0500 		movq	__imp_DispatchMessageA(%rip), %rax
 196      000000
 197 01f1 FFD0     		call	*%rax
 198              	.L6:
  61:win/win.c     ****    {
 199              		.loc 1 61 0
 200 01f3 488D4530 		leaq	48(%rbp), %rax
 201 01f7 41B90000 		movl	$0, %r9d
 201      0000
 202 01fd 41B80000 		movl	$0, %r8d
 202      0000
 203 0203 BA000000 		movl	$0, %edx
 203      00
 204 0208 4889C1   		movq	%rax, %rcx
 205 020b 488B0500 		movq	__imp_GetMessageA(%rip), %rax
GAS LISTING C:\Users\UCB\AppData\Local\Temp\ccaX9t6f.s 			page 7


 205      000000
 206 0212 FFD0     		call	*%rax
 207 0214 85C0     		testl	%eax, %eax
 208 0216 7FBB     		jg	.L7
  65:win/win.c     ****    }
  66:win/win.c     ****    return msg.wParam;
 209              		.loc 1 66 0
 210 0218 488B4540 		movq	64(%rbp), %rax
 211              	.L8:
  67:win/win.c     **** }
 212              		.loc 1 67 0 discriminator 1
 213 021c 4881C400 		addq	$256, %rsp
 213      010000
 214 0223 5D       		popq	%rbp
 215              		.cfi_restore 6
 216              		.cfi_def_cfa 7, -248
 217 0224 C3       		ret
 218              		.cfi_endproc
 219              	.LFE1949:
 220              		.seh_endproc
 221              		.section .rdata,"dr"
 222              	.LC4:
 223 003b 46656E73 		.ascii "Fenster bewegt\0"
 223      74657220 
 223      62657765 
 223      677400
 224 004a 00000000 		.text
 224      0000
 225              		.globl	WndProc
 227              		.seh_proc	WndProc
 228              	WndProc:
 229              	.LFB1950:
  68:win/win.c     **** 
  69:win/win.c     **** LRESULT CALLBACK WndProc(HWND hWnd, UINT umsg, WPARAM wParam, LPARAM lParam)
  70:win/win.c     **** {
 230              		.loc 1 70 0
 231              		.cfi_startproc
 232 0225 55       		pushq	%rbp
 233              		.seh_pushreg	%rbp
 234              		.cfi_def_cfa_offset 16
 235              		.cfi_offset 6, -16
 236 0226 4889E5   		movq	%rsp, %rbp
 237              		.seh_setframe	%rbp, 0
 238              		.cfi_def_cfa_register 6
 239 0229 4883EC20 		subq	$32, %rsp
 240              		.seh_stackalloc	32
 241              		.seh_endprologue
 242 022d 48894D10 		movq	%rcx, 16(%rbp)
 243 0231 895518   		movl	%edx, 24(%rbp)
 244 0234 4C894520 		movq	%r8, 32(%rbp)
 245 0238 4C894D28 		movq	%r9, 40(%rbp)
  71:win/win.c     ****    switch (umsg)
 246              		.loc 1 71 0
 247 023c 8B4518   		movl	24(%rbp), %eax
 248 023f 83F802   		cmpl	$2, %eax
 249 0242 7407     		je	.L11
 250 0244 83F803   		cmpl	$3, %eax
GAS LISTING C:\Users\UCB\AppData\Local\Temp\ccaX9t6f.s 			page 8


 251 0247 7417     		je	.L12
 252 0249 EB28     		jmp	.L14
 253              	.L11:
  72:win/win.c     ****    {
  73:win/win.c     **** 		case WM_DESTROY:
  74:win/win.c     **** 		{
  75:win/win.c     **** 			PostQuitMessage(0);
 254              		.loc 1 75 0
 255 024b B9000000 		movl	$0, %ecx
 255      00
 256 0250 488B0500 		movq	__imp_PostQuitMessage(%rip), %rax
 256      000000
 257 0257 FFD0     		call	*%rax
  76:win/win.c     **** 			return 0;
 258              		.loc 1 76 0
 259 0259 B8000000 		movl	$0, %eax
 259      00
 260 025e EB33     		jmp	.L13
 261              	.L12:
  77:win/win.c     **** 		}
  78:win/win.c     **** 		case WM_MOVE:
  79:win/win.c     **** 		{
  80:win/win.c     **** 			printf("Fenster bewegt\n");
 262              		.loc 1 80 0
 263 0260 488D0D3B 		leaq	.LC4(%rip), %rcx
 263      000000
 264 0267 E8000000 		call	puts
 264      00
  81:win/win.c     **** 			return 0;
 265              		.loc 1 81 0
 266 026c B8000000 		movl	$0, %eax
 266      00
 267 0271 EB20     		jmp	.L13
 268              	.L14:
  82:win/win.c     **** 		}
  83:win/win.c     ****    }
  84:win/win.c     ****    return DefWindowProc(hWnd, umsg, wParam, lParam);
 269              		.loc 1 84 0
 270 0273 488B4D28 		movq	40(%rbp), %rcx
 271 0277 488B5520 		movq	32(%rbp), %rdx
 272 027b 8B4518   		movl	24(%rbp), %eax
 273 027e 4989C9   		movq	%rcx, %r9
 274 0281 4989D0   		movq	%rdx, %r8
 275 0284 89C2     		movl	%eax, %edx
 276 0286 488B4D10 		movq	16(%rbp), %rcx
 277 028a 488B0500 		movq	__imp_DefWindowProcA(%rip), %rax
 277      000000
 278 0291 FFD0     		call	*%rax
 279              	.L13:
  85:win/win.c     **** }...
 280              		.loc 1 85 0
 281 0293 4883C420 		addq	$32, %rsp
 282 0297 5D       		popq	%rbp
 283              		.cfi_restore 6
 284              		.cfi_def_cfa 7, 8
 285 0298 C3       		ret
 286              		.cfi_endproc
GAS LISTING C:\Users\UCB\AppData\Local\Temp\ccaX9t6f.s 			page 9


 287              	.LFE1950:
 288              		.seh_endproc
 289              	.Letext0:
 290              		.file 2 "c:/mingw12_2/mingw/x86_64-w64-mingw32/include/minwindef.h"
 291              		.file 3 "c:/mingw12_2/mingw/x86_64-w64-mingw32/include/basetsd.h"
 292              		.file 4 "c:/mingw12_2/mingw/x86_64-w64-mingw32/include/winnt.h"
 293              		.file 5 "c:/mingw12_2/mingw/x86_64-w64-mingw32/include/windef.h"
 294              		.file 6 "c:/mingw12_2/mingw/x86_64-w64-mingw32/include/winuser.h"
 295              		.file 7 "c:/mingw12_2/mingw/x86_64-w64-mingw32/include/combaseapi.h"
 296              		.file 8 "c:/mingw12_2/mingw/x86_64-w64-mingw32/include/wtypes.h"
 297              		.file 9 "c:/mingw12_2/mingw/x86_64-w64-mingw32/include/winbase.h"