	.file	"linux.c"
	.text
.Ltext0:
	.cfi_sections	.debug_frame
	.section	.rodata
.LC0:
	.string	"Hey, I'm Linux"
	.text
	.globl	os
	.type	os, @function
os:
.LFB2:
	.file 1 "linux/linux.c"
	.loc 1 9 0
	.cfi_startproc
	pushq	%rbp
	.cfi_def_cfa_offset 16
	.cfi_offset 6, -16
	movq	%rsp, %rbp
	.cfi_def_cfa_register 6
	.loc 1 10 0
	movl	$.LC0, %edi
	movl	$0, %eax
	call	printf
	.loc 1 11 0
	popq	%rbp
	.cfi_def_cfa 7, 8
	ret
	.cfi_endproc
.LFE2:
	.size	os, .-os
	.section	.rodata
.LC1:
	.string	"Hello World Example"
.LC2:
	.string	"10x20"
	.text
	.globl	main
	.type	main, @function
main:
.LFB3:
	.loc 1 13 0
	.cfi_startproc
	pushq	%rbp
	.cfi_def_cfa_offset 16
	.cfi_offset 6, -16
	movq	%rsp, %rbp
	.cfi_def_cfa_register 6
	subq	$752, %rsp
	.loc 1 13 0
	movq	%fs:40, %rax
	movq	%rax, -8(%rbp)
	xorl	%eax, %eax
	.loc 1 25 0
	movabsq	$8022916924116329800, %rax
	movq	%rax, -224(%rbp)
	movl	$6581362, -216(%rbp)
	.loc 1 26 0
	leaq	-224(%rbp), %rax
	movq	%rax, %rdi
	call	strlen
	movl	%eax, -680(%rbp)
	.loc 1 28 0
	movl	$0, %edi
	call	XOpenDisplay
	movq	%rax, -664(%rbp)
	.loc 1 29 0
	movq	-664(%rbp), %rax
	movq	232(%rax), %rax
	movq	64(%rax), %rax
	movq	%rax, -656(%rbp)
	.loc 1 30 0
	movq	-664(%rbp), %rax
	movq	232(%rax), %rax
	movl	56(%rax), %eax
	movl	%eax, -676(%rbp)
	.loc 1 32 0
	movq	-664(%rbp), %rax
	movl	$0, %esi
	movq	%rax, %rdi
	call	XWhitePixel
	movq	%rax, -600(%rbp)
	.loc 1 34 0
	movq	-664(%rbp), %rax
	movl	$0, %esi
	movq	%rax, %rdi
	call	XRootWindow
	movq	%rax, %rsi
	movq	-664(%rbp), %rax
	leaq	-608(%rbp), %rdx
	movq	%rdx, 40(%rsp)
	movq	$2, 32(%rsp)
	movq	-656(%rbp), %rdx
	movq	%rdx, 24(%rsp)
	movl	$1, 16(%rsp)
	movl	-676(%rbp), %edx
	movl	%edx, 8(%rsp)
	movl	$5, (%rsp)
	movl	$400, %r9d
	movl	$400, %r8d
	movl	$0, %ecx
	movl	$0, %edx
	movq	%rax, %rdi
	call	XCreateWindow
	movq	%rax, -648(%rbp)
	.loc 1 38 0
	movq	-648(%rbp), %rcx
	movq	-664(%rbp), %rax
	movl	$.LC1, %edx
	movq	%rcx, %rsi
	movq	%rax, %rdi
	call	XStoreName
	.loc 1 39 0
	movq	-648(%rbp), %rcx
	movq	-664(%rbp), %rax
	movl	$163840, %edx
	movq	%rcx, %rsi
	movq	%rax, %rdi
	call	XSelectInput
	.loc 1 41 0
	movq	-664(%rbp), %rax
	movl	$.LC2, %esi
	movq	%rax, %rdi
	call	XLoadQueryFont
	movq	%rax, -640(%rbp)
	.loc 1 42 0
	movq	-640(%rbp), %rax
	movq	8(%rax), %rax
	movq	%rax, -408(%rbp)
	.loc 1 43 0
	movq	-664(%rbp), %rax
	movl	$0, %esi
	movq	%rax, %rdi
	call	XBlackPixel
	movq	%rax, -480(%rbp)
	.loc 1 44 0
	leaq	-496(%rbp), %rdx
	movq	-648(%rbp), %rsi
	movq	-664(%rbp), %rax
	movq	%rdx, %rcx
	movl	$16388, %edx
	movq	%rax, %rdi
	call	XCreateGC
	movq	%rax, -632(%rbp)
	.loc 1 46 0
	movq	-648(%rbp), %rdx
	movq	-664(%rbp), %rax
	movq	%rdx, %rsi
	movq	%rax, %rdi
	call	XMapWindow
.L6:
	.loc 1 49 0
	leaq	-208(%rbp), %rdx
	movq	-664(%rbp), %rax
	movq	%rdx, %rsi
	movq	%rax, %rdi
	call	XNextEvent
	.loc 1 50 0
	movl	-208(%rbp), %eax
	cmpl	$12, %eax
	je	.L4
	.loc 1 69 0
	jmp	.L5
.L4:
.LBB2:
	.loc 1 56 0
	leaq	-684(%rbp), %r9
	leaq	-688(%rbp), %r8
	leaq	-692(%rbp), %rcx
	movl	-680(%rbp), %edx
	leaq	-224(%rbp), %rsi
	movq	-640(%rbp), %rax
	leaq	-624(%rbp), %rdi
	movq	%rdi, (%rsp)
	movq	%rax, %rdi
	call	XTextExtents
	.loc 1 59 0
	leaq	-368(%rbp), %rdx
	movq	-648(%rbp), %rcx
	movq	-664(%rbp), %rax
	movq	%rcx, %rsi
	movq	%rax, %rdi
	call	XGetWindowAttributes
	.loc 1 60 0
	movl	-360(%rbp), %edx
	movzwl	-620(%rbp), %eax
	cwtl
	subl	%eax, %edx
	movl	%edx, %eax
	movl	%eax, %edx
	shrl	$31, %edx
	addl	%edx, %eax
	sarl	%eax
	movl	%eax, -672(%rbp)
	.loc 1 61 0
	movl	-356(%rbp), %eax
	.loc 1 62 0
	movzwl	-618(%rbp), %edx
	movswl	%dx, %ecx
	movzwl	-616(%rbp), %edx
	movswl	%dx, %edx
	addl	%ecx, %edx
	.loc 1 61 0
	subl	%edx, %eax
	movl	%eax, %edx
	shrl	$31, %edx
	addl	%edx, %eax
	sarl	%eax
	movl	%eax, -668(%rbp)
	.loc 1 63 0
	leaq	-224(%rbp), %r9
	movl	-668(%rbp), %r8d
	movl	-672(%rbp), %ecx
	movq	-632(%rbp), %rdx
	movq	-648(%rbp), %rsi
	movq	-664(%rbp), %rax
	movl	-680(%rbp), %edi
	movl	%edi, (%rsp)
	movq	%rax, %rdi
	call	XDrawString
	.loc 1 65 0
	movq	-632(%rbp), %rdx
	movq	-648(%rbp), %rsi
	movq	-664(%rbp), %rax
	movl	$10, (%rsp)
	movl	$10, %r9d
	movl	$10, %r8d
	movl	$10, %ecx
	movq	%rax, %rdi
	call	XDrawRectangle
	.loc 1 66 0
	nop
.L5:
.LBE2:
	.loc 1 71 0
	jmp	.L6
	.cfi_endproc
.LFE3:
	.size	main, .-main
.Letext0:
	.file 2 "/usr/include/X11/X.h"
	.file 3 "/usr/include/X11/Xlib.h"
	.section	.note.GNU-stack,"",@progbits
