	.file	"win.c"
	.text
.Ltext0:
	.cfi_sections	.debug_frame
	.section .rdata,"dr"
.LC0:
	.ascii "Hey, I'm Windows!\0"
	.text
	.globl	os
	.def	os;	.scl	2;	.type	32;	.endef
os:
.LFB1948:
	.file 1 "win/win.c"
	.loc 1 4 0
	.cfi_startproc
	pushq	%rbp
	.cfi_def_cfa_offset 16
	.cfi_offset 6, -16
	movq	%rsp, %rbp
	.cfi_def_cfa_register 6
	subq	$32, %rsp
	.loc 1 5 0
	leaq	.LC0(%rip), %rcx
	call	puts
	.loc 1 6 0
	leave
	.cfi_restore 6
	.cfi_def_cfa 7, 8
	ret
	.cfi_endproc
.LFE1948:
	.globl	lpszAppName
	.section .rdata,"dr"
.LC1:
	.ascii "AppName\0"
	.data
	.align 8
lpszAppName:
	.quad	.LC1
	.globl	lpszTitle
	.section .rdata,"dr"
.LC2:
	.ascii "Meine erste Applikation\0"
	.data
	.align 8
lpszTitle:
	.quad	.LC2
	.section .rdata,"dr"
.LC3:
	.ascii "Finished\0"
	.text
	.globl	WinMain
	.def	WinMain;	.scl	2;	.type	32;	.endef
WinMain:
.LFB1949:
	.loc 1 15 0
	.cfi_startproc
	pushq	%rbp
	.cfi_def_cfa_offset 16
	.cfi_offset 6, -16
	movq	%rsp, %rbp
	.cfi_def_cfa_register 6
	subq	$256, %rsp
	movq	%rcx, 16(%rbp)
	movq	%rdx, 24(%rbp)
	movq	%r8, 32(%rbp)
	movl	%r9d, 40(%rbp)
	.loc 1 17 0
	movl	$0, -4(%rbp)
	.loc 1 18 0
	movl	$1, -8(%rbp)
	.loc 1 19 0
	movl	-4(%rbp), %edx
	movl	-8(%rbp), %eax
	addl	%edx, %eax
	movl	%eax, -12(%rbp)
	.loc 1 20 0
	leaq	.LC3(%rip), %rcx
	call	printf
	.loc 1 26 0
	movl	$80, -160(%rbp)
	.loc 1 27 0
	movl	$515, -156(%rbp)
	.loc 1 28 0
	leaq	WndProc(%rip), %rax
	movq	%rax, -152(%rbp)
	.loc 1 29 0
	movl	$0, -144(%rbp)
	.loc 1 30 0
	movl	$0, -140(%rbp)
	.loc 1 31 0
	movq	16(%rbp), %rax
	movq	%rax, -136(%rbp)
	.loc 1 32 0
	movl	$32512, %edx
	movl	$0, %ecx
	movq	__imp_LoadCursorA(%rip), %rax
	call	*%rax
	movq	%rax, -120(%rbp)
	.loc 1 33 0
	movl	$32512, %edx
	movl	$0, %ecx
	movq	__imp_LoadIconA(%rip), %rax
	call	*%rax
	movq	%rax, -128(%rbp)
	.loc 1 34 0
	movl	$0, %ecx
	movq	__imp_GetStockObject(%rip), %rax
	call	*%rax
	movq	%rax, -112(%rbp)
	.loc 1 35 0
	movq	lpszAppName(%rip), %rax
	movq	%rax, -96(%rbp)
	.loc 1 36 0
	movq	lpszAppName(%rip), %rax
	movq	%rax, -104(%rbp)
	.loc 1 37 0
	movl	$32512, %edx
	movl	$0, %ecx
	movq	__imp_LoadIconA(%rip), %rax
	call	*%rax
	movq	%rax, -88(%rbp)
	.loc 1 39 0
	leaq	-160(%rbp), %rax
	movq	%rax, %rcx
	movq	__imp_RegisterClassExA(%rip), %rax
	call	*%rax
	testw	%ax, %ax
	jne	.L3
	.loc 1 40 0
	movl	$0, %eax
	jmp	.L8
.L3:
	.loc 1 42 0
	movq	lpszTitle(%rip), %rcx
	movq	lpszAppName(%rip), %rax
	movq	$0, 88(%rsp)
	movq	16(%rbp), %rdx
	movq	%rdx, 80(%rsp)
	movq	$0, 72(%rsp)
	movq	$0, 64(%rsp)
	movl	$-2147483648, 56(%rsp)
	movl	$-2147483648, 48(%rsp)
	movl	$0, 40(%rsp)
	movl	$0, 32(%rsp)
	movl	$13565952, %r9d
	movq	%rcx, %r8
	movq	%rax, %rdx
	movl	$0, %ecx
	movq	__imp_CreateWindowExA(%rip), %rax
	call	*%rax
	movq	%rax, -24(%rbp)
	.loc 1 55 0
	cmpq	$0, -24(%rbp)
	jne	.L5
	.loc 1 56 0
	movl	$0, %eax
	jmp	.L8
.L5:
	.loc 1 58 0
	movl	40(%rbp), %edx
	movq	-24(%rbp), %rax
	movq	%rax, %rcx
	movq	__imp_ShowWindow(%rip), %rax
	call	*%rax
	.loc 1 59 0
	movq	-24(%rbp), %rax
	movq	%rax, %rcx
	movq	__imp_UpdateWindow(%rip), %rax
	call	*%rax
	.loc 1 61 0
	jmp	.L6
.L7:
	.loc 1 63 0
	leaq	-80(%rbp), %rax
	movq	%rax, %rcx
	movq	__imp_TranslateMessage(%rip), %rax
	call	*%rax
	.loc 1 64 0
	leaq	-80(%rbp), %rax
	movq	%rax, %rcx
	movq	__imp_DispatchMessageA(%rip), %rax
	call	*%rax
.L6:
	.loc 1 61 0
	leaq	-80(%rbp), %rax
	movl	$0, %r9d
	movl	$0, %r8d
	movl	$0, %edx
	movq	%rax, %rcx
	movq	__imp_GetMessageA(%rip), %rax
	call	*%rax
	testl	%eax, %eax
	jg	.L7
	.loc 1 66 0
	movq	-64(%rbp), %rax
.L8:
	.loc 1 67 0 discriminator 1
	leave
	.cfi_restore 6
	.cfi_def_cfa 7, 8
	ret
	.cfi_endproc
.LFE1949:
	.section .rdata,"dr"
.LC4:
	.ascii "Fenster bewegt\0"
	.text
	.globl	WndProc
	.def	WndProc;	.scl	2;	.type	32;	.endef
WndProc:
.LFB1950:
	.loc 1 70 0
	.cfi_startproc
	pushq	%rbp
	.cfi_def_cfa_offset 16
	.cfi_offset 6, -16
	movq	%rsp, %rbp
	.cfi_def_cfa_register 6
	subq	$32, %rsp
	movq	%rcx, 16(%rbp)
	movl	%edx, 24(%rbp)
	movq	%r8, 32(%rbp)
	movq	%r9, 40(%rbp)
	.loc 1 71 0
	movl	24(%rbp), %eax
	cmpl	$2, %eax
	je	.L11
	cmpl	$3, %eax
	je	.L12
	jmp	.L14
.L11:
	.loc 1 75 0
	movl	$0, %ecx
	movq	__imp_PostQuitMessage(%rip), %rax
	call	*%rax
	.loc 1 76 0
	movl	$0, %eax
	jmp	.L13
.L12:
	.loc 1 80 0
	leaq	.LC4(%rip), %rcx
	call	puts
	.loc 1 81 0
	movl	$0, %eax
	jmp	.L13
.L14:
	.loc 1 84 0
	movq	40(%rbp), %rcx
	movq	32(%rbp), %rdx
	movl	24(%rbp), %eax
	movq	%rcx, %r9
	movq	%rdx, %r8
	movl	%eax, %edx
	movq	16(%rbp), %rcx
	movq	__imp_DefWindowProcA(%rip), %rax
	call	*%rax
.L13:
	.loc 1 85 0
	leave
	.cfi_restore 6
	.cfi_def_cfa 7, 8
	ret
	.cfi_endproc
.LFE1950:
.Letext0:
	.file 2 "c:/mingw12_2/mingw/x86_64-w64-mingw32/include/minwindef.h"
	.file 3 "c:/mingw12_2/mingw/x86_64-w64-mingw32/include/basetsd.h"
	.file 4 "c:/mingw12_2/mingw/x86_64-w64-mingw32/include/winnt.h"
	.file 5 "c:/mingw12_2/mingw/x86_64-w64-mingw32/include/windef.h"
	.file 6 "c:/mingw12_2/mingw/x86_64-w64-mingw32/include/winuser.h"
	.file 7 "c:/mingw12_2/mingw/x86_64-w64-mingw32/include/combaseapi.h"
	.file 8 "c:/mingw12_2/mingw/x86_64-w64-mingw32/include/wtypes.h"
	.file 9 "c:/mingw12_2/mingw/x86_64-w64-mingw32/include/winbase.h"